; Function Attrs: mustprogress uwtable
define noundef ptr @_ZNK6icu_7716ICULocaleService3getERKNS_6LocaleEiR10UErrorCode(ptr noundef nonnull align 8 dereferenceable(408) %0, ptr noundef nonnull readonly align 8 captures(none) dereferenceable(217) %1, i32 noundef %2, ptr noundef nonnull align 4 dereferenceable(4) %3) local_unnamed_addr #1 align 2 personality ptr @__gxx_personality_v0 {
  %5 = alloca %"class.icu_77::UnicodeString", align 8
  %6 = load i32, ptr %3, align 4, !tbaa !13
  %7 = icmp slt i32 %6, 1
  br i1 %7, label %8, label %_ZNK6icu_7716ICULocaleService3getERKNS_6LocaleEiPS1_R10UErrorCode.exit

8:                                                ; preds = %4
  call void @llvm.lifetime.start.p0(i64 64, ptr nonnull %5) #15
  %9 = getelementptr inbounds nuw i8, ptr %1, i64 40
  %10 = load ptr, ptr %9, align 8, !tbaa !18
  call void @_ZN6icu_7713UnicodeStringC1EPKciNS0_10EInvariantE(ptr noundef nonnull align 8 dereferenceable(64) %5, ptr noundef %10, i32 noundef -1, i32 noundef 0)
  %11 = getelementptr inbounds nuw i8, ptr %5, i64 8
  %12 = load i16, ptr %11, align 8, !tbaa !17
  %13 = and i16 %12, 1
  %.not26.i = icmp eq i16 %13, 0
  br i1 %.not26.i, label %15, label %14

14:                                               ; preds = %8
  store i32 7, ptr %3, align 4, !tbaa !13
  br label %29

15:                                               ; preds = %8
  %16 = load ptr, ptr %0, align 8, !tbaa !15
  %17 = getelementptr inbounds nuw i8, ptr %16, i64 184
  %18 = load ptr, ptr %17, align 8
  %19 = invoke noundef ptr %18(ptr noundef nonnull align 8 dereferenceable(408) %0, ptr noundef nonnull %5, i32 noundef %2, ptr noundef nonnull align 4 dereferenceable(4) %3)
          to label %20 unwind label %23

20:                                               ; preds = %15
  %.not27.i = icmp eq ptr %19, null
  br i1 %.not27.i, label %29, label %21

21:                                               ; preds = %20
  %22 = invoke noundef ptr @_ZNK6icu_7710ICUService6getKeyERNS_13ICUServiceKeyER10UErrorCode(ptr noundef nonnull align 8 dereferenceable(408) %0, ptr noundef nonnull align 8 dereferenceable(72) %19, ptr noundef nonnull align 4 dereferenceable(4) %3)
          to label %25 unwind label %23

23:                                               ; preds = %21, %15
  %24 = landingpad { ptr, i32 }
          cleanup
  call void @_ZN6icu_7713UnicodeStringD1Ev(ptr noundef nonnull align 8 dereferenceable(64) %5) #15
  call void @llvm.lifetime.end.p0(i64 64, ptr nonnull %5) #15
  resume { ptr, i32 } %24

25:                                               ; preds = %21
  %26 = load ptr, ptr %19, align 8, !tbaa !15
  %27 = getelementptr inbounds nuw i8, ptr %26, i64 8
  %28 = load ptr, ptr %27, align 8
  call void %28(ptr noundef nonnull align 8 dereferenceable(72) %19) #15
  br label %29

29:                                               ; preds = %25, %20, %14
  %.022.i = phi ptr [ null, %14 ], [ %22, %25 ], [ null, %20 ]
  call void @_ZN6icu_7713UnicodeStringD1Ev(ptr noundef nonnull align 8 dereferenceable(64) %5) #15
  call void @llvm.lifetime.end.p0(i64 64, ptr nonnull %5) #15
  br label %_ZNK6icu_7716ICULocaleService3getERKNS_6LocaleEiPS1_R10UErrorCode.exit

_ZNK6icu_7716ICULocaleService3getERKNS_6LocaleEiPS1_R10UErrorCode.exit: ; preds = %4, %29
  %.0.i = phi ptr [ %.022.i, %29 ], [ null, %4 ]
  ret ptr %.0.i
}